; Function Attrs: nounwind uwtable
define internal range(i32 -1, 1) i32 @H5FD__log_get_handle(ptr noundef %0, i64 %1, ptr noundef writeonly captures(address_is_null) %2) #0 {
  %4 = load i8, ptr @H5FD_init_g, align 1, !tbaa !3, !range !7, !noundef !8
  %5 = trunc nuw i8 %4 to i1
  %6 = load i8, ptr @H5_libterm_g, align 1, !range !7
  %7 = trunc nuw i8 %6 to i1
  %8 = xor i1 %7, true
  %9 = select i1 %5, i1 true, i1 %8
  br i1 %9, label %10, label %17, !prof !9

10:                                               ; preds = %3
  %.not = icmp eq ptr %2, null
  br i1 %.not, label %11, label %15

11:                                               ; preds = %10
  %12 = load i64, ptr @H5E_ARGS_g, align 8, !tbaa !10
  %13 = load i64, ptr @H5E_BADVALUE_g, align 8, !tbaa !10
  %14 = tail call i32 (ptr, ptr, i32, i64, i64, ptr, ...) @H5E_printf_stack(ptr noundef nonnull @.str, ptr noundef nonnull @__func__.H5FD__log_get_handle, i32 noundef 1058, i64 noundef %12, i64 noundef %13, ptr noundef nonnull @.str.51) #19
  br label %17

15:                                               ; preds = %10
  %16 = getelementptr inbounds nuw i8, ptr %0, i64 80
  store ptr %16, ptr %2, align 8, !tbaa !65
  br label %17

17:                                               ; preds = %11, %15, %3
  %.0 = phi i32 [ 0, %15 ], [ -1, %11 ], [ 0, %3 ]
  ret i32 %.0
}